; Function Attrs: mustprogress uwtable
define hidden noundef ptr @_ZN14decl_collector12collect_depsEP4sort(ptr noundef nonnull align 8 dereferenceable(464) %this, ptr noundef %s) local_unnamed_addr #3 align 2 {
entry:
  %s.addr = alloca ptr, align 8
  store ptr %s, ptr %s.addr, align 8
  %call = tail call noalias noundef ptr @_ZN6memory8allocateEm(i64 noundef 24)
  %call.i.i.i.i = tail call noalias noundef ptr @_ZN6memory8allocateEm(i64 noundef 64)
  tail call void @llvm.memset.p0.i64(ptr noundef nonnull align 8 dereferenceable(64) %call.i.i.i.i, i8 0, i64 64, i1 false)
  store ptr %call.i.i.i.i, ptr %call, align 8
  %m_capacity.i.i = getelementptr inbounds i8, ptr %call, i64 8
  store i32 8, ptr %m_capacity.i.i, align 8
  %m_size.i.i = getelementptr inbounds i8, ptr %call, i64 12
  store i32 0, ptr %m_size.i.i, align 4
  %m_num_deleted.i.i = getelementptr inbounds i8, ptr %call, i64 16
  store i32 0, ptr %m_num_deleted.i.i, align 8
  tail call void @_ZN14decl_collector12collect_depsEP4sortR13obj_hashtableIS0_E(ptr noundef nonnull align 8 dereferenceable(464) %this, ptr noundef %s, ptr noundef nonnull align 8 dereferenceable(20) %call)
  call void @_ZN14core_hashtableI14obj_hash_entryI4sortE12obj_ptr_hashIS1_E6ptr_eqIS1_EE6removeERKPS1_(ptr noundef nonnull align 8 dereferenceable(20) %call, ptr noundef nonnull align 8 dereferenceable(8) %s.addr)
  ret ptr %call
}